target datalayout = "e-m:e-p270:32:32-p271:32:32-p272:64:64-i64:64-i128:128-f80:128-n8:16:32:64-S128"
target triple = "x86_64-pc-linux-gnu"

%"class.std::basic_ostream" = type { ptr, %"class.std::basic_ios" }
%"class.std::basic_ios" = type { %"class.std::ios_base", ptr, i8, i8, ptr, ptr, ptr, ptr }
%"class.std::ios_base" = type { ptr, i64, i64, i32, i32, i32, ptr, %"struct.std::ios_base::_Words", [8 x %"struct.std::ios_base::_Words"], i32, ptr, %"class.std::locale" }
%"struct.std::ios_base::_Words" = type { ptr, i64 }
%"class.std::locale" = type { ptr }
%class.Moves = type { i32, i32, i32, i32, i32, i32, i32, i32, i32, [13 x %"struct.Moves::trackType"], ptr, [13 x [4 x %struct.movePlyType]], ptr, [13 x [4 x i32]], [13 x %"class.std::__cxx11::basic_string"], [13 x [4 x %"struct.Moves::moveStatType"]], [13 x [4 x %"struct.Moves::moveStatType"]], [13 x [4 x %"struct.Moves::moveStatsType"]], [13 x [4 x %"struct.Moves::moveStatsType"]], %"struct.Moves::moveStatsType", %"struct.Moves::moveStatsType", [16 x { i64, i64 }] }
%"struct.Moves::trackType" = type { i32, i32, [4 x i32], [4 x i32], %struct.trickDataType, [4 x %struct.extCard], [4 x i32], [4 x [4 x i32]], [4 x i32] }
%struct.trickDataType = type { [4 x i32], i32, i32, i32, i32, i32 }
%struct.extCard = type { i32, i32, i32 }
%struct.movePlyType = type { [14 x %struct.moveType], i32, i32 }
%struct.moveType = type { i32, i32, i32, i32 }
%"class.std::__cxx11::basic_string" = type { %"struct.std::__cxx11::basic_string<char>::_Alloc_hider", i64, %union.anon }
%"struct.std::__cxx11::basic_string<char>::_Alloc_hider" = type { ptr }
%union.anon = type { i64, [8 x i8] }
%"struct.Moves::moveStatType" = type { i32, i32, i32, i32 }
%"struct.Moves::moveStatsType" = type { i32, [13 x %"struct.Moves::moveStatType"] }

@_ZSt4cout = external global %"class.std::basic_ostream", align 8
@.str.13 = private unnamed_addr constant [5 x i8] c"Sum \00", align 1
@.str.14 = private unnamed_addr constant [13 x i8] c" is not four\00", align 1

; Function Attrs: mustprogress uwtable
define noundef nonnull align 4 dereferenceable(36) ptr @_ZN5Moves12GetTrickDataEi(ptr noundef nonnull align 8 dereferenceable(39992) %0, i32 noundef %1) #4 align 2 {
  %3 = alloca ptr, align 8
  %4 = alloca i32, align 4
  %5 = alloca ptr, align 8
  %6 = alloca i32, align 4
  %7 = alloca i32, align 4
  %8 = alloca i32, align 4
  %9 = alloca i32, align 4
  store ptr %0, ptr %3, align 8
  store i32 %1, ptr %4, align 4
  %10 = load ptr, ptr %3, align 8
  %11 = getelementptr inbounds nuw %class.Moves, ptr %10, i32 0, i32 9
  %12 = load i32, ptr %4, align 4
  %13 = sext i32 %12 to i64
  %14 = getelementptr inbounds [13 x %"struct.Moves::trackType"], ptr %11, i64 0, i64 %13
  %15 = getelementptr inbounds nuw %"struct.Moves::trackType", ptr %14, i32 0, i32 4
  store ptr %15, ptr %5, align 8
  store i32 0, ptr %6, align 4
  br label %16

16:                                               ; preds = %25, %2
  %17 = load i32, ptr %6, align 4
  %18 = icmp slt i32 %17, 4
  br i1 %18, label %19, label %28

19:                                               ; preds = %16
  %20 = load ptr, ptr %5, align 8
  %21 = getelementptr inbounds nuw %struct.trickDataType, ptr %20, i32 0, i32 0
  %22 = load i32, ptr %6, align 4
  %23 = sext i32 %22 to i64
  %24 = getelementptr inbounds [4 x i32], ptr %21, i64 0, i64 %23
  store i32 0, ptr %24, align 4
  br label %25

25:                                               ; preds = %19
  %26 = load i32, ptr %6, align 4
  %27 = add nsw i32 %26, 1
  store i32 %27, ptr %6, align 4
  br label %16, !llvm.loop !84

28:                                               ; preds = %16
  store i32 0, ptr %7, align 4
  br label %29

29:                                               ; preds = %46, %28
  %30 = load i32, ptr %7, align 4
  %31 = icmp slt i32 %30, 4
  br i1 %31, label %32, label %49

32:                                               ; preds = %29
  %33 = load ptr, ptr %5, align 8
  %34 = getelementptr inbounds nuw %struct.trickDataType, ptr %33, i32 0, i32 0
  %35 = getelementptr inbounds nuw %class.Moves, ptr %10, i32 0, i32 10
  %36 = load ptr, ptr %35, align 8
  %37 = getelementptr inbounds nuw %"struct.Moves::trackType", ptr %36, i32 0, i32 2
  %38 = load i32, ptr %7, align 4
  %39 = sext i32 %38 to i64
  %40 = getelementptr inbounds [4 x i32], ptr %37, i64 0, i64 %39
  %41 = load i32, ptr %40, align 4
  %42 = sext i32 %41 to i64
  %43 = getelementptr inbounds [4 x i32], ptr %34, i64 0, i64 %42
  %44 = load i32, ptr %43, align 4
  %45 = add nsw i32 %44, 1
  store i32 %45, ptr %43, align 4
  br label %46

46:                                               ; preds = %32
  %47 = load i32, ptr %7, align 4
  %48 = add nsw i32 %47, 1
  store i32 %48, ptr %7, align 4
  br label %29, !llvm.loop !85

49:                                               ; preds = %29
  store i32 0, ptr %8, align 4
  store i32 0, ptr %9, align 4
  br label %50

50:                                               ; preds = %62, %49
  %51 = load i32, ptr %9, align 4
  %52 = icmp slt i32 %51, 4
  br i1 %52, label %53, label %65

53:                                               ; preds = %50
  %54 = load ptr, ptr %5, align 8
  %55 = getelementptr inbounds nuw %struct.trickDataType, ptr %54, i32 0, i32 0
  %56 = load i32, ptr %9, align 4
  %57 = sext i32 %56 to i64
  %58 = getelementptr inbounds [4 x i32], ptr %55, i64 0, i64 %57
  %59 = load i32, ptr %58, align 4
  %60 = load i32, ptr %8, align 4
  %61 = add nsw i32 %60, %59
  store i32 %61, ptr %8, align 4
  br label %62

62:                                               ; preds = %53
  %63 = load i32, ptr %9, align 4
  %64 = add nsw i32 %63, 1
  store i32 %64, ptr %9, align 4
  br label %50, !llvm.loop !86

65:                                               ; preds = %50
  %66 = load i32, ptr %8, align 4
  %67 = icmp ne i32 %66, 4
  br i1 %67, label %68, label %74

68:                                               ; preds = %65
  %69 = call noundef nonnull align 8 dereferenceable(8) ptr @_ZStlsISt11char_traitsIcEERSt13basic_ostreamIcT_ES5_PKc(ptr noundef nonnull align 8 dereferenceable(8) @_ZSt4cout, ptr noundef @.str.13)
  %70 = load i32, ptr %8, align 4
  %71 = call noundef nonnull align 8 dereferenceable(8) ptr @_ZNSolsEi(ptr noundef nonnull align 8 dereferenceable(8) %69, i32 noundef %70)
  %72 = call noundef nonnull align 8 dereferenceable(8) ptr @_ZStlsISt11char_traitsIcEERSt13basic_ostreamIcT_ES5_PKc(ptr noundef nonnull align 8 dereferenceable(8) %71, ptr noundef @.str.14)
  %73 = call noundef nonnull align 8 dereferenceable(8) ptr @_ZNSolsEPFRSoS_E(ptr noundef nonnull align 8 dereferenceable(8) %72, ptr noundef @_ZSt4endlIcSt11char_traitsIcEERSt13basic_ostreamIT_T0_ES6_)
  call void @exit(i32 noundef 1) #11
  unreachable

74:                                               ; preds = %65
  %75 = getelementptr inbounds nuw %class.Moves, ptr %10, i32 0, i32 10
  %76 = load ptr, ptr %75, align 8
  %77 = getelementptr inbounds nuw %"struct.Moves::trackType", ptr %76, i32 0, i32 5
  %78 = getelementptr inbounds [4 x %struct.extCard], ptr %77, i64 0, i64 3
  %79 = getelementptr inbounds nuw %struct.extCard, ptr %78, i32 0, i32 1
  %80 = load i32, ptr %79, align 4
  %81 = load ptr, ptr %5, align 8
  %82 = getelementptr inbounds nuw %struct.trickDataType, ptr %81, i32 0, i32 1
  store i32 %80, ptr %82, align 4
  %83 = getelementptr inbounds nuw %class.Moves, ptr %10, i32 0, i32 10
  %84 = load ptr, ptr %83, align 8
  %85 = getelementptr inbounds nuw %"struct.Moves::trackType", ptr %84, i32 0, i32 5
  %86 = getelementptr inbounds [4 x %struct.extCard], ptr %85, i64 0, i64 3
  %87 = getelementptr inbounds nuw %struct.extCard, ptr %86, i32 0, i32 0
  %88 = load i32, ptr %87, align 4
  %89 = load ptr, ptr %5, align 8
  %90 = getelementptr inbounds nuw %struct.trickDataType, ptr %89, i32 0, i32 2
  store i32 %88, ptr %90, align 4
  %91 = getelementptr inbounds nuw %class.Moves, ptr %10, i32 0, i32 10
  %92 = load ptr, ptr %91, align 8
  %93 = getelementptr inbounds nuw %"struct.Moves::trackType", ptr %92, i32 0, i32 5
  %94 = getelementptr inbounds [4 x %struct.extCard], ptr %93, i64 0, i64 3
  %95 = getelementptr inbounds nuw %struct.extCard, ptr %94, i32 0, i32 2
  %96 = load i32, ptr %95, align 4
  %97 = load ptr, ptr %5, align 8
  %98 = getelementptr inbounds nuw %struct.trickDataType, ptr %97, i32 0, i32 3
  store i32 %96, ptr %98, align 4
  %99 = getelementptr inbounds nuw %class.Moves, ptr %10, i32 0, i32 10
  %100 = load ptr, ptr %99, align 8
  %101 = getelementptr inbounds nuw %"struct.Moves::trackType", ptr %100, i32 0, i32 6
  %102 = getelementptr inbounds [4 x i32], ptr %101, i64 0, i64 3
  %103 = load i32, ptr %102, align 4
  %104 = load ptr, ptr %5, align 8
  %105 = getelementptr inbounds nuw %struct.trickDataType, ptr %104, i32 0, i32 4
  store i32 %103, ptr %105, align 4
  %106 = load ptr, ptr %5, align 8
  ret ptr %106
}