; Function Attrs: mustprogress uwtable
define noundef nonnull align 4 dereferenceable(36) ptr @_ZN5Moves12GetTrickDataEi(ptr noundef nonnull align 8 dereferenceable(39992) %0, i32 noundef %1) local_unnamed_addr #3 align 2 {
.preheader24:
  %2 = getelementptr inbounds nuw i8, ptr %0, i64 36
  %3 = sext i32 %1 to i64
  %4 = getelementptr inbounds [13 x %"struct.Moves::trackType"], ptr %2, i64 0, i64 %3, i32 4
  tail call void @llvm.memset.p0.i64(ptr noundef nonnull align 4 dereferenceable(16) %4, i8 0, i64 16, i1 false)
  %5 = getelementptr inbounds nuw i8, ptr %0, i64 2896
  br label %6

6:                                                ; preds = %.preheader24, %6
  %indvars.iv = phi i64 [ 0, %.preheader24 ], [ %indvars.iv.next, %6 ]
  %7 = load ptr, ptr %5, align 8
  %8 = getelementptr inbounds nuw i8, ptr %7, i64 8
  %9 = getelementptr inbounds [4 x i32], ptr %8, i64 0, i64 %indvars.iv
  %10 = load i32, ptr %9, align 4
  %11 = sext i32 %10 to i64
  %12 = getelementptr inbounds [4 x i32], ptr %4, i64 0, i64 %11
  %13 = load i32, ptr %12, align 4
  %14 = add nsw i32 %13, 1
  store i32 %14, ptr %12, align 4
  %indvars.iv.next = add nuw nsw i64 %indvars.iv, 1
  %exitcond.not = icmp eq i64 %indvars.iv.next, 4
  br i1 %exitcond.not, label %.preheader, label %6, !llvm.loop !84

.preheader:                                       ; preds = %6, %.preheader
  %indvars.iv31 = phi i64 [ %indvars.iv.next32, %.preheader ], [ 0, %6 ]
  %.02127 = phi i32 [ %17, %.preheader ], [ 0, %6 ]
  %15 = getelementptr inbounds [4 x i32], ptr %4, i64 0, i64 %indvars.iv31
  %16 = load i32, ptr %15, align 4
  %17 = add nsw i32 %16, %.02127
  %indvars.iv.next32 = add nuw nsw i64 %indvars.iv31, 1
  %exitcond34.not = icmp eq i64 %indvars.iv.next32, 4
  br i1 %exitcond34.not, label %18, label %.preheader, !llvm.loop !85

18:                                               ; preds = %.preheader
  %.not = icmp eq i32 %17, 4
  br i1 %.not, label %24, label %19

19:                                               ; preds = %18
  %20 = tail call noundef nonnull align 8 dereferenceable(8) ptr @_ZStlsISt11char_traitsIcEERSt13basic_ostreamIcT_ES5_PKc(ptr noundef nonnull align 8 dereferenceable(8) @_ZSt4cout, ptr noundef nonnull @.str.13)
  %21 = tail call noundef nonnull align 8 dereferenceable(8) ptr @_ZNSolsEi(ptr noundef nonnull align 8 dereferenceable(8) %20, i32 noundef %17)
  %22 = tail call noundef nonnull align 8 dereferenceable(8) ptr @_ZStlsISt11char_traitsIcEERSt13basic_ostreamIcT_ES5_PKc(ptr noundef nonnull align 8 dereferenceable(8) %21, ptr noundef nonnull @.str.14)
  %23 = tail call noundef nonnull align 8 dereferenceable(8) ptr @_ZNSolsEPFRSoS_E(ptr noundef nonnull align 8 dereferenceable(8) %22, ptr noundef nonnull @_ZSt4endlIcSt11char_traitsIcEERSt13basic_ostreamIT_T0_ES6_)
  tail call void @exit(i32 noundef 1) #22
  unreachable

24:                                               ; preds = %18
  %25 = load ptr, ptr %5, align 8
  %26 = getelementptr inbounds i8, ptr %25, i64 116
  %27 = load i32, ptr %26, align 4
  %28 = getelementptr inbounds nuw i8, ptr %4, i64 16
  store i32 %27, ptr %28, align 4
  %29 = getelementptr inbounds i8, ptr %25, i64 112
  %30 = load i32, ptr %29, align 4
  %31 = getelementptr inbounds nuw i8, ptr %4, i64 20
  store i32 %30, ptr %31, align 4
  %32 = getelementptr inbounds i8, ptr %25, i64 120
  %33 = load i32, ptr %32, align 4
  %34 = getelementptr inbounds nuw i8, ptr %4, i64 24
  store i32 %33, ptr %34, align 4
  %35 = getelementptr inbounds i8, ptr %25, i64 136
  %36 = load i32, ptr %35, align 4
  %37 = getelementptr inbounds nuw i8, ptr %4, i64 28
  store i32 %36, ptr %37, align 4
  ret ptr %4
}